
output/main.elf:     file format elf32-littlearm


Disassembly of section .text:

0800010c <memset>:
 800010c:	b570      	push	{r4, r5, r6, lr}
 800010e:	0786      	lsls	r6, r0, #30
 8000110:	d047      	beq.n	80001a2 <memset+0x96>
 8000112:	1e54      	subs	r4, r2, #1
 8000114:	2a00      	cmp	r2, #0
 8000116:	d03e      	beq.n	8000196 <memset+0x8a>
 8000118:	4603      	mov	r3, r0
 800011a:	b2ca      	uxtb	r2, r1
 800011c:	e001      	b.n	8000122 <memset+0x16>
 800011e:	3c01      	subs	r4, #1
 8000120:	d339      	bcc.n	8000196 <memset+0x8a>
 8000122:	f803 2b01 	strb.w	r2, [r3], #1
 8000126:	079d      	lsls	r5, r3, #30
 8000128:	d1f9      	bne.n	800011e <memset+0x12>
 800012a:	2c03      	cmp	r4, #3
 800012c:	d92c      	bls.n	8000188 <memset+0x7c>
 800012e:	b2cd      	uxtb	r5, r1
 8000130:	eb05 2505 	add.w	r5, r5, r5, lsl #8
 8000134:	2c0f      	cmp	r4, #15
 8000136:	461a      	mov	r2, r3
 8000138:	eb05 4505 	add.w	r5, r5, r5, lsl #16
 800013c:	d934      	bls.n	80001a8 <memset+0x9c>
 800013e:	f1a4 0c10 	sub.w	ip, r4, #16
 8000142:	f02c 060f 	bic.w	r6, ip, #15
 8000146:	f103 0e10 	add.w	lr, r3, #16
 800014a:	44b6      	add	lr, r6
 800014c:	ea4f 1c1c 	mov.w	ip, ip, lsr #4
 8000150:	e9c2 5500 	strd	r5, r5, [r2]
 8000154:	e9c2 5502 	strd	r5, r5, [r2, #8]
 8000158:	3210      	adds	r2, #16
 800015a:	4572      	cmp	r2, lr
 800015c:	d1f8      	bne.n	8000150 <memset+0x44>
 800015e:	f10c 0201 	add.w	r2, ip, #1
 8000162:	f014 0f0c 	tst.w	r4, #12
 8000166:	eb03 1202 	add.w	r2, r3, r2, lsl #4
 800016a:	f004 0c0f 	and.w	ip, r4, #15
 800016e:	d013      	beq.n	8000198 <memset+0x8c>
 8000170:	f1ac 0304 	sub.w	r3, ip, #4
 8000174:	f023 0303 	bic.w	r3, r3, #3
 8000178:	3304      	adds	r3, #4
 800017a:	4413      	add	r3, r2
 800017c:	f842 5b04 	str.w	r5, [r2], #4
 8000180:	4293      	cmp	r3, r2
 8000182:	d1fb      	bne.n	800017c <memset+0x70>
 8000184:	f00c 0403 	and.w	r4, ip, #3
 8000188:	b12c      	cbz	r4, 8000196 <memset+0x8a>
 800018a:	b2c9      	uxtb	r1, r1
 800018c:	441c      	add	r4, r3
 800018e:	f803 1b01 	strb.w	r1, [r3], #1
 8000192:	42a3      	cmp	r3, r4
 8000194:	d1fb      	bne.n	800018e <memset+0x82>
 8000196:	bd70      	pop	{r4, r5, r6, pc}
 8000198:	4664      	mov	r4, ip
 800019a:	4613      	mov	r3, r2
 800019c:	2c00      	cmp	r4, #0
 800019e:	d1f4      	bne.n	800018a <memset+0x7e>
 80001a0:	e7f9      	b.n	8000196 <memset+0x8a>
 80001a2:	4603      	mov	r3, r0
 80001a4:	4614      	mov	r4, r2
 80001a6:	e7c0      	b.n	800012a <memset+0x1e>
 80001a8:	46a4      	mov	ip, r4
 80001aa:	e7e1      	b.n	8000170 <memset+0x64>

080001ac <Reset_Handler>:
	.weak	Reset_Handler
	.type	Reset_Handler, %function
Reset_Handler:

/* Copy the data segment initializers from flash to SRAM */
  movs	r1, #0
 80001ac:	2100      	movs	r1, #0
  b	LoopCopyDataInit
 80001ae:	e003      	b.n	80001b8 <LoopCopyDataInit>

080001b0 <CopyDataInit>:

CopyDataInit:
	ldr	r3, =_sidata
 80001b0:	4b0a      	ldr	r3, [pc, #40]	@ (80001dc <LoopFillZerobss+0x10>)
	ldr	r3, [r3, r1]
 80001b2:	585b      	ldr	r3, [r3, r1]
	str	r3, [r0, r1]
 80001b4:	5043      	str	r3, [r0, r1]
	adds	r1, r1, #4
 80001b6:	3104      	adds	r1, #4

080001b8 <LoopCopyDataInit>:

LoopCopyDataInit:
	ldr	r0, =_sdata
 80001b8:	4809      	ldr	r0, [pc, #36]	@ (80001e0 <LoopFillZerobss+0x14>)
	ldr	r3, =_edata
 80001ba:	4b0a      	ldr	r3, [pc, #40]	@ (80001e4 <LoopFillZerobss+0x18>)
	adds	r2, r0, r1
 80001bc:	1842      	adds	r2, r0, r1
	cmp	r2, r3
 80001be:	429a      	cmp	r2, r3
	bcc	CopyDataInit
 80001c0:	d3f6      	bcc.n	80001b0 <CopyDataInit>
	ldr	r2, =_sbss
 80001c2:	4a09      	ldr	r2, [pc, #36]	@ (80001e8 <LoopFillZerobss+0x1c>)
	b	LoopFillZerobss
 80001c4:	e002      	b.n	80001cc <LoopFillZerobss>

080001c6 <FillZerobss>:
/* Zero fill the bss segment. */
FillZerobss:
	movs	r3, #0
 80001c6:	2300      	movs	r3, #0
	str	r3, [r2], #4
 80001c8:	f842 3b04 	str.w	r3, [r2], #4

080001cc <LoopFillZerobss>:

LoopFillZerobss:
	ldr	r3, = _ebss
 80001cc:	4b07      	ldr	r3, [pc, #28]	@ (80001ec <LoopFillZerobss+0x20>)
	cmp	r2, r3
 80001ce:	429a      	cmp	r2, r3
	bcc	FillZerobss
 80001d0:	d3f9      	bcc.n	80001c6 <FillZerobss>
/* Call the clock system intitialization function.*/
  bl  SystemInit
 80001d2:	f000 f80f 	bl	80001f4 <SystemInit>
/* Call the application's entry point.*/
	bl	main
 80001d6:	f000 fa45 	bl	8000664 <main>
	bx	lr
 80001da:	4770      	bx	lr
	ldr	r3, =_sidata
 80001dc:	0800070c 	.word	0x0800070c
	ldr	r0, =_sdata
 80001e0:	20000000 	.word	0x20000000
	ldr	r3, =_edata
 80001e4:	20000000 	.word	0x20000000
	ldr	r2, =_sbss
 80001e8:	20000000 	.word	0x20000000
	ldr	r3, = _ebss
 80001ec:	20000400 	.word	0x20000400

080001f0 <ADC1_2_IRQHandler>:
 * @retval None
*/
    .section	.text.Default_Handler,"ax",%progbits
Default_Handler:
Infinite_Loop:
	b	Infinite_Loop
 80001f0:	e7fe      	b.n	80001f0 <ADC1_2_IRQHandler>
	...

080001f4 <SystemInit>:
  */
void SystemInit (void)
{
  /* Reset the RCC clock configuration to the default reset state(for debug purpose) */
  /* Set HSION bit */
  RCC->CR |= (uint32_t)0x00000001;
 80001f4:	4b30      	ldr	r3, [pc, #192]	@ (80002b8 <SystemInit+0xc4>)
{
 80001f6:	b082      	sub	sp, #8
  RCC->CR |= (uint32_t)0x00000001;
 80001f8:	681a      	ldr	r2, [r3, #0]
 80001fa:	f042 0201 	orr.w	r2, r2, #1
 80001fe:	601a      	str	r2, [r3, #0]

  /* Reset SW, HPRE, PPRE1, PPRE2, ADCPRE and MCO bits */
#ifndef STM32F10X_CL
  RCC->CFGR &= (uint32_t)0xF8FF0000;
 8000200:	6859      	ldr	r1, [r3, #4]
 8000202:	4a2e      	ldr	r2, [pc, #184]	@ (80002bc <SystemInit+0xc8>)
 8000204:	400a      	ands	r2, r1
 8000206:	605a      	str	r2, [r3, #4]
#else
  RCC->CFGR &= (uint32_t)0xF0FF0000;
#endif /* STM32F10X_CL */   
  
  /* Reset HSEON, CSSON and PLLON bits */
  RCC->CR &= (uint32_t)0xFEF6FFFF;
 8000208:	681a      	ldr	r2, [r3, #0]
 800020a:	f022 7284 	bic.w	r2, r2, #17301504	@ 0x1080000
 800020e:	f422 3280 	bic.w	r2, r2, #65536	@ 0x10000
 8000212:	601a      	str	r2, [r3, #0]

  /* Reset HSEBYP bit */
  RCC->CR &= (uint32_t)0xFFFBFFFF;
 8000214:	681a      	ldr	r2, [r3, #0]
 8000216:	f422 2280 	bic.w	r2, r2, #262144	@ 0x40000
 800021a:	601a      	str	r2, [r3, #0]

  /* Reset PLLSRC, PLLXTPRE, PLLMUL and USBPRE/OTGFSPRE bits */
  RCC->CFGR &= (uint32_t)0xFF80FFFF;
 800021c:	685a      	ldr	r2, [r3, #4]
 800021e:	f422 02fe 	bic.w	r2, r2, #8323072	@ 0x7f0000
 8000222:	605a      	str	r2, [r3, #4]

  /* Reset CFGR2 register */
  RCC->CFGR2 = 0x00000000;
#elif defined (STM32F10X_LD_VL) || defined (STM32F10X_MD_VL) || (defined STM32F10X_HD_VL)
  /* Disable all interrupts and clear pending bits  */
  RCC->CIR = 0x009F0000;
 8000224:	f44f 021f 	mov.w	r2, #10420224	@ 0x9f0000
 8000228:	609a      	str	r2, [r3, #8]

  /* Reset CFGR2 register */
  RCC->CFGR2 = 0x00000000;      
 800022a:	2200      	movs	r2, #0
 800022c:	62da      	str	r2, [r3, #44]	@ 0x2c
  * @param  None
  * @retval None
  */
static void SetSysClockTo24(void)
{
  __IO uint32_t StartUpCounter = 0, HSEStatus = 0;
 800022e:	9200      	str	r2, [sp, #0]
 8000230:	9201      	str	r2, [sp, #4]
  
  /* SYSCLK, HCLK, PCLK2 and PCLK1 configuration ---------------------------*/    
  /* Enable HSE */    
  RCC->CR |= ((uint32_t)RCC_CR_HSEON);
 8000232:	681a      	ldr	r2, [r3, #0]
 8000234:	f442 3280 	orr.w	r2, r2, #65536	@ 0x10000
 8000238:	601a      	str	r2, [r3, #0]
 
  /* Wait till HSE is ready and if Time out is reached exit */
  do
  {
    HSEStatus = RCC->CR & RCC_CR_HSERDY;
 800023a:	681a      	ldr	r2, [r3, #0]
 800023c:	f402 3200 	and.w	r2, r2, #131072	@ 0x20000
 8000240:	9201      	str	r2, [sp, #4]
    StartUpCounter++;  
 8000242:	9a00      	ldr	r2, [sp, #0]
 8000244:	3201      	adds	r2, #1
 8000246:	9200      	str	r2, [sp, #0]
  } while((HSEStatus == 0) && (StartUpCounter != HSE_STARTUP_TIMEOUT));
 8000248:	9a01      	ldr	r2, [sp, #4]
 800024a:	b91a      	cbnz	r2, 8000254 <SystemInit+0x60>
 800024c:	9a00      	ldr	r2, [sp, #0]
 800024e:	f5b2 6fa0 	cmp.w	r2, #1280	@ 0x500
 8000252:	d1f2      	bne.n	800023a <SystemInit+0x46>

  if ((RCC->CR & RCC_CR_HSERDY) != RESET)
 8000254:	681a      	ldr	r2, [r3, #0]
 8000256:	f412 3200 	ands.w	r2, r2, #131072	@ 0x20000
  {
    HSEStatus = (uint32_t)0x01;
 800025a:	bf18      	it	ne
 800025c:	2201      	movne	r2, #1
  }
  else
  {
    HSEStatus = (uint32_t)0x00;
 800025e:	9201      	str	r2, [sp, #4]
  }  

  if (HSEStatus == (uint32_t)0x01)
 8000260:	9a01      	ldr	r2, [sp, #4]
 8000262:	2a01      	cmp	r2, #1
 8000264:	d121      	bne.n	80002aa <SystemInit+0xb6>
    FLASH->ACR &= (uint32_t)((uint32_t)~FLASH_ACR_LATENCY);
    FLASH->ACR |= (uint32_t)FLASH_ACR_LATENCY_0;    
#endif
 
    /* HCLK = SYSCLK */
    RCC->CFGR |= (uint32_t)RCC_CFGR_HPRE_DIV1;
 8000266:	685a      	ldr	r2, [r3, #4]
 8000268:	605a      	str	r2, [r3, #4]
      
    /* PCLK2 = HCLK */
    RCC->CFGR |= (uint32_t)RCC_CFGR_PPRE2_DIV1;
 800026a:	685a      	ldr	r2, [r3, #4]
 800026c:	605a      	str	r2, [r3, #4]
    
    /* PCLK1 = HCLK */
    RCC->CFGR |= (uint32_t)RCC_CFGR_PPRE1_DIV1;
 800026e:	685a      	ldr	r2, [r3, #4]
 8000270:	605a      	str	r2, [r3, #4]
    while((RCC->CR & RCC_CR_PLL2RDY) == 0)
    {
    }   
#elif defined (STM32F10X_LD_VL) || defined (STM32F10X_MD_VL) || defined (STM32F10X_HD_VL)
    /*  PLL configuration:  = (HSE / 2) * 6 = 24 MHz */
    RCC->CFGR &= (uint32_t)((uint32_t)~(RCC_CFGR_PLLSRC | RCC_CFGR_PLLXTPRE | RCC_CFGR_PLLMULL));
 8000272:	685a      	ldr	r2, [r3, #4]
 8000274:	f422 127c 	bic.w	r2, r2, #4128768	@ 0x3f0000
 8000278:	605a      	str	r2, [r3, #4]
    RCC->CFGR |= (uint32_t)(RCC_CFGR_PLLSRC_PREDIV1 | RCC_CFGR_PLLXTPRE_PREDIV1_Div2 | RCC_CFGR_PLLMULL6);
 800027a:	685a      	ldr	r2, [r3, #4]
 800027c:	f442 1298 	orr.w	r2, r2, #1245184	@ 0x130000
 8000280:	605a      	str	r2, [r3, #4]
    RCC->CFGR &= (uint32_t)((uint32_t)~(RCC_CFGR_PLLSRC | RCC_CFGR_PLLXTPRE | RCC_CFGR_PLLMULL));
    RCC->CFGR |= (uint32_t)(RCC_CFGR_PLLSRC_HSE | RCC_CFGR_PLLXTPRE_HSE_Div2 | RCC_CFGR_PLLMULL6);
#endif /* STM32F10X_CL */

    /* Enable PLL */
    RCC->CR |= RCC_CR_PLLON;
 8000282:	681a      	ldr	r2, [r3, #0]
 8000284:	f042 7280 	orr.w	r2, r2, #16777216	@ 0x1000000
 8000288:	601a      	str	r2, [r3, #0]

    /* Wait till PLL is ready */
    while((RCC->CR & RCC_CR_PLLRDY) == 0)
 800028a:	681a      	ldr	r2, [r3, #0]
 800028c:	0192      	lsls	r2, r2, #6
 800028e:	d5fc      	bpl.n	800028a <SystemInit+0x96>
    {
    }

    /* Select PLL as system clock source */
    RCC->CFGR &= (uint32_t)((uint32_t)~(RCC_CFGR_SW));
 8000290:	685a      	ldr	r2, [r3, #4]
 8000292:	f022 0203 	bic.w	r2, r2, #3
 8000296:	605a      	str	r2, [r3, #4]
    RCC->CFGR |= (uint32_t)RCC_CFGR_SW_PLL;    
 8000298:	685a      	ldr	r2, [r3, #4]
 800029a:	f042 0202 	orr.w	r2, r2, #2
 800029e:	605a      	str	r2, [r3, #4]

    /* Wait till PLL is used as system clock source */
    while ((RCC->CFGR & (uint32_t)RCC_CFGR_SWS) != (uint32_t)0x08)
 80002a0:	685a      	ldr	r2, [r3, #4]
 80002a2:	f002 020c 	and.w	r2, r2, #12
 80002a6:	2a08      	cmp	r2, #8
 80002a8:	d1fa      	bne.n	80002a0 <SystemInit+0xac>
  SCB->VTOR = FLASH_BASE | VECT_TAB_OFFSET; /* Vector Table Relocation in Internal FLASH. */
 80002aa:	f04f 6200 	mov.w	r2, #134217728	@ 0x8000000
 80002ae:	4b04      	ldr	r3, [pc, #16]	@ (80002c0 <SystemInit+0xcc>)
 80002b0:	609a      	str	r2, [r3, #8]
}
 80002b2:	b002      	add	sp, #8
 80002b4:	4770      	bx	lr
 80002b6:	bf00      	nop
 80002b8:	40021000 	.word	0x40021000
 80002bc:	f8ff0000 	.word	0xf8ff0000
 80002c0:	e000ed00 	.word	0xe000ed00

080002c4 <NMI_Handler>:
 80002c4:	4770      	bx	lr

080002c6 <HardFault_Handler>:
 80002c6:	e7fe      	b.n	80002c6 <HardFault_Handler>

080002c8 <MemManage_Handler>:
 80002c8:	e7fe      	b.n	80002c8 <MemManage_Handler>

080002ca <BusFault_Handler>:
 80002ca:	e7fe      	b.n	80002ca <BusFault_Handler>

080002cc <UsageFault_Handler>:
 80002cc:	e7fe      	b.n	80002cc <UsageFault_Handler>

080002ce <SVC_Handler>:
 80002ce:	4770      	bx	lr

080002d0 <DebugMon_Handler>:
 80002d0:	4770      	bx	lr

080002d2 <PendSV_Handler>:
 80002d2:	4770      	bx	lr

080002d4 <SysTick_Handler>:
 80002d4:	4770      	bx	lr
	...

080002d8 <RccClockInit>:
    // Setting count wait cycles of FLASH
    // Setting AHB1,AHB2 prescaler
    // Switch to PLL
    
    uint16_t timeDelay;
    RCC->CR |= RCC_CR_HSEON;          // Запуск генератора
 80002d8:	4b25      	ldr	r3, [pc, #148]	@ (8000370 <RccClockInit+0x98>)
 80002da:	681a      	ldr	r2, [r3, #0]
 80002dc:	f442 3280 	orr.w	r2, r2, #65536	@ 0x10000
 80002e0:	601a      	str	r2, [r3, #0]
 80002e2:	f241 0202 	movw	r2, #4098	@ 0x1002
    
    for (timeDelay=0;;timeDelay++)    // Раскачка кварца (стабилизация процесса)
    {
    	if (RCC->CR & RCC_CR_HSERDY)  // Выход из цикла по завершении стабилизации HSE
 80002e6:	6819      	ldr	r1, [r3, #0]
 80002e8:	0388      	lsls	r0, r1, #14
 80002ea:	d409      	bmi.n	8000300 <RccClockInit+0x28>
    	    break;
    	if (timeDelay > 0x1000)
 80002ec:	3a01      	subs	r2, #1
 80002ee:	b292      	uxth	r2, r2
 80002f0:	2a00      	cmp	r2, #0
 80002f2:	d1f8      	bne.n	80002e6 <RccClockInit+0xe>
    	{
    	    RCC->CR &= ~RCC_CR_HSEON; // Отключение "стартера" по таймауту  (4096 итераций)
 80002f4:	681a      	ldr	r2, [r3, #0]
    	    return 1;
 80002f6:	2001      	movs	r0, #1
    	    RCC->CR &= ~RCC_CR_HSEON; // Отключение "стартера" по таймауту  (4096 итераций)
 80002f8:	f422 3280 	bic.w	r2, r2, #65536	@ 0x10000
 80002fc:	601a      	str	r2, [r3, #0]
    	    return 1;
 80002fe:	4770      	bx	lr
    	}
    }
    
    RCC->CFGR |= RCC_CFGR_PLLMULL9;   // PLL x9
 8000300:	685a      	ldr	r2, [r3, #4]
 8000302:	f442 12e0 	orr.w	r2, r2, #1835008	@ 0x1c0000
 8000306:	605a      	str	r2, [r3, #4]
    RCC->CFGR |= RCC_CFGR_PLLSRC;     // PLL source: HSE
 8000308:	685a      	ldr	r2, [r3, #4]
 800030a:	f442 3280 	orr.w	r2, r2, #65536	@ 0x10000
 800030e:	605a      	str	r2, [r3, #4]
    RCC->CR |= RCC_CR_PLLON;          // Enable PLL
 8000310:	681a      	ldr	r2, [r3, #0]
 8000312:	f042 7280 	orr.w	r2, r2, #16777216	@ 0x1000000
 8000316:	601a      	str	r2, [r3, #0]
 8000318:	f241 0202 	movw	r2, #4098	@ 0x1002
    
    for (timeDelay=0;;timeDelay++)    // Ожидание захвата подстроечной частоты
    {
    	if (RCC->CR & RCC_CR_PLLRDY)  // Реализовано на уровне флагов регистров
 800031c:	6819      	ldr	r1, [r3, #0]
 800031e:	0189      	lsls	r1, r1, #6
 8000320:	d40d      	bmi.n	800033e <RccClockInit+0x66>
    	    break;
    	if (timeDelay > 0x1000)       // Отключение по таймауту (4096 итераций)
 8000322:	3a01      	subs	r2, #1
 8000324:	b292      	uxth	r2, r2
 8000326:	2a00      	cmp	r2, #0
 8000328:	d1f8      	bne.n	800031c <RccClockInit+0x44>
    	{
    	    RCC->CR &= ~RCC_CR_HSEON;
 800032a:	681a      	ldr	r2, [r3, #0]
    	    RCC->CR &= ~RCC_CR_PLLON;
    	    return 2;
 800032c:	2002      	movs	r0, #2
    	    RCC->CR &= ~RCC_CR_HSEON;
 800032e:	f422 3280 	bic.w	r2, r2, #65536	@ 0x10000
 8000332:	601a      	str	r2, [r3, #0]
    	    RCC->CR &= ~RCC_CR_PLLON;
 8000334:	681a      	ldr	r2, [r3, #0]
 8000336:	f022 7280 	bic.w	r2, r2, #16777216	@ 0x1000000
 800033a:	601a      	str	r2, [r3, #0]
    	    return 2;
 800033c:	4770      	bx	lr
    	}
    }
    
    // Подготовка трассы (Flash и шины)
    FLASH->ACR |= FLASH_ACR_LATENCY_2;    // Добавление двух тактов ожидания для предотвращения процессорных сбоев
 800033e:	490d      	ldr	r1, [pc, #52]	@ (8000374 <RccClockInit+0x9c>)
 8000340:	680a      	ldr	r2, [r1, #0]
 8000342:	f042 0202 	orr.w	r2, r2, #2
 8000346:	600a      	str	r2, [r1, #0]
    RCC->CFGR |= RCC_CFGR_PPRE1_DIV2;     // APB1 prescaler=2 - Системная настройка, ловим каждый второй такт
 8000348:	685a      	ldr	r2, [r3, #4]
 800034a:	f442 6280 	orr.w	r2, r2, #1024	@ 0x400
 800034e:	605a      	str	r2, [r3, #4]
    
    RCC->CFGR |= RCC_CFGR_SW_PLL;                       // Переключение ядра на PLL
 8000350:	685a      	ldr	r2, [r3, #4]
 8000352:	f042 0202 	orr.w	r2, r2, #2
 8000356:	605a      	str	r2, [r3, #4]
    while ((RCC->CFGR & RCC_CFGR_SWS) != (0x02<<2)) {}  // Ожидание подтверждения
 8000358:	685a      	ldr	r2, [r3, #4]
 800035a:	f002 020c 	and.w	r2, r2, #12
 800035e:	2a08      	cmp	r2, #8
 8000360:	d1fa      	bne.n	8000358 <RccClockInit+0x80>
    RCC->CR &= ~RCC_CR_HSION;                           // Отключение внутреннего HSI за ненадобностью
 8000362:	681a      	ldr	r2, [r3, #0]
    
    return 0;
 8000364:	2000      	movs	r0, #0
    RCC->CR &= ~RCC_CR_HSION;                           // Отключение внутреннего HSI за ненадобностью
 8000366:	f022 0201 	bic.w	r2, r2, #1
 800036a:	601a      	str	r2, [r3, #0]
}
 800036c:	4770      	bx	lr
 800036e:	bf00      	nop
 8000370:	40021000 	.word	0x40021000
 8000374:	40022000 	.word	0x40022000

08000378 <sleep>:
#include <stdint.h>

void sleep(uint32_t x) {
 8000378:	b082      	sub	sp, #8
    // Ключевое слово volatile не позволяет компилятору выкинуть пустой цикл
    volatile uint32_t i = x;
 800037a:	9001      	str	r0, [sp, #4]
    while(i--)
 800037c:	9b01      	ldr	r3, [sp, #4]
 800037e:	1e5a      	subs	r2, r3, #1
 8000380:	9201      	str	r2, [sp, #4]
 8000382:	2b00      	cmp	r3, #0
 8000384:	d1fa      	bne.n	800037c <sleep+0x4>
        ;
}
 8000386:	b002      	add	sp, #8
 8000388:	4770      	bx	lr
	...

0800038c <SPI1Init>:


void SPI1Init()
{
    // 1. Включаем тактирование
    RCC->APB2ENR |= RCC_APB2ENR_SPI1EN | RCC_APB2ENR_IOPAEN | RCC_APB2ENR_AFIOEN;
 800038c:	4a22      	ldr	r2, [pc, #136]	@ (8000418 <SPI1Init+0x8c>)
{
 800038e:	b510      	push	{r4, lr}
    RCC->APB2ENR |= RCC_APB2ENR_SPI1EN | RCC_APB2ENR_IOPAEN | RCC_APB2ENR_AFIOEN;
 8000390:	6993      	ldr	r3, [r2, #24]
    
    // 4. Инициализация состояний (HIGH по умолчанию)
    GPIOA->BSRR = (1<<8) | (1<<9) | (1<<10);  // RES=1, CS=1, DC=1
    
    // 5. SPI1 настройка
    SPI1->CR1 = 0;
 8000392:	2400      	movs	r4, #0
    RCC->APB2ENR |= RCC_APB2ENR_SPI1EN | RCC_APB2ENR_IOPAEN | RCC_APB2ENR_AFIOEN;
 8000394:	f443 5380 	orr.w	r3, r3, #4096	@ 0x1000
 8000398:	f043 0305 	orr.w	r3, r3, #5
 800039c:	6193      	str	r3, [r2, #24]
    RCC->AHBENR  |= RCC_AHBENR_DMA1EN;
 800039e:	6953      	ldr	r3, [r2, #20]
    SPI1->CR1 |= (SPI_CR1_MSTR | SPI_CR1_SSI | SPI_CR1_SSM | 
                  SPI_CR1_BR_2 | SPI_CR1_BR_1 | SPI_CR1_BR_0);
    SPI1->CR2 |= SPI_CR2_TXDMAEN;
    SPI1->CR1 |= SPI_CR1_SPE;
    sleep(5000);
 80003a0:	f241 3088 	movw	r0, #5000	@ 0x1388
    RCC->AHBENR  |= RCC_AHBENR_DMA1EN;
 80003a4:	f043 0301 	orr.w	r3, r3, #1
 80003a8:	6153      	str	r3, [r2, #20]
    GPIOA->CRL &= ~((0xF << (4*5)) | (0xF << (4*7)));	// Очистка
 80003aa:	4b1c      	ldr	r3, [pc, #112]	@ (800041c <SPI1Init+0x90>)
 80003ac:	681a      	ldr	r2, [r3, #0]
 80003ae:	f022 4270 	bic.w	r2, r2, #4026531840	@ 0xf0000000
 80003b2:	f422 0270 	bic.w	r2, r2, #15728640	@ 0xf00000
 80003b6:	601a      	str	r2, [r3, #0]
	GPIOA->CRL |= (0xB << (4*5)) | (0xB << (4*7));		// 0b1011 = MODE=11, CNF=10
 80003b8:	681a      	ldr	r2, [r3, #0]
 80003ba:	f042 4230 	orr.w	r2, r2, #2952790016	@ 0xb0000000
 80003be:	f442 0230 	orr.w	r2, r2, #11534336	@ 0xb00000
 80003c2:	601a      	str	r2, [r3, #0]
    GPIOA->CRH &= ~((0xF << 0) | (0xF << 4) | (0xF << 8));
 80003c4:	685a      	ldr	r2, [r3, #4]
 80003c6:	f36f 020b 	bfc	r2, #0, #12
 80003ca:	605a      	str	r2, [r3, #4]
	GPIOA->CRH |= (0x3 << 0) | (0x3 << 4) | (0x3 << 8);
 80003cc:	685a      	ldr	r2, [r3, #4]
 80003ce:	f442 724c 	orr.w	r2, r2, #816	@ 0x330
 80003d2:	f042 0203 	orr.w	r2, r2, #3
 80003d6:	605a      	str	r2, [r3, #4]
    GPIOA->BSRR = (1<<8) | (1<<9) | (1<<10);  // RES=1, CS=1, DC=1
 80003d8:	f44f 62e0 	mov.w	r2, #1792	@ 0x700
 80003dc:	611a      	str	r2, [r3, #16]
    SPI1->CR1 = 0;
 80003de:	f503 5320 	add.w	r3, r3, #10240	@ 0x2800
 80003e2:	801c      	strh	r4, [r3, #0]
    SPI1->CR1 |= (SPI_CR1_MSTR | SPI_CR1_SSI | SPI_CR1_SSM | 
 80003e4:	881a      	ldrh	r2, [r3, #0]
 80003e6:	b292      	uxth	r2, r2
 80003e8:	f442 724f 	orr.w	r2, r2, #828	@ 0x33c
 80003ec:	801a      	strh	r2, [r3, #0]
    SPI1->CR2 |= SPI_CR2_TXDMAEN;
 80003ee:	889a      	ldrh	r2, [r3, #4]
 80003f0:	b292      	uxth	r2, r2
 80003f2:	f042 0202 	orr.w	r2, r2, #2
 80003f6:	809a      	strh	r2, [r3, #4]
    SPI1->CR1 |= SPI_CR1_SPE;
 80003f8:	881a      	ldrh	r2, [r3, #0]
 80003fa:	b292      	uxth	r2, r2
 80003fc:	f042 0240 	orr.w	r2, r2, #64	@ 0x40
 8000400:	801a      	strh	r2, [r3, #0]
    sleep(5000);
 8000402:	f7ff ffb9 	bl	8000378 <sleep>
    
    // 6. DMA1 Channel 3
    DMA1_Channel3->CCR = 0;
 8000406:	4a06      	ldr	r2, [pc, #24]	@ (8000420 <SPI1Init+0x94>)
 8000408:	6314      	str	r4, [r2, #48]	@ 0x30
    DMA1_Channel3->CCR |= (DMA_CCR3_DIR | DMA_CCR3_MINC | 
 800040a:	6b13      	ldr	r3, [r2, #48]	@ 0x30
 800040c:	f443 5302 	orr.w	r3, r3, #8320	@ 0x2080
 8000410:	f043 0312 	orr.w	r3, r3, #18
 8000414:	6313      	str	r3, [r2, #48]	@ 0x30
                          DMA_CCR3_PL_1 | DMA_CCR3_TCIE);
}
 8000416:	bd10      	pop	{r4, pc}
 8000418:	40021000 	.word	0x40021000
 800041c:	40010800 	.word	0x40010800
 8000420:	40020000 	.word	0x40020000

08000424 <SPI1Transmit>:

void SPI1Transmit(uint8_t data)
{
    // Ждем, пока буфер передачи станет пустым
    while(!(SPI1->SR & SPI_SR_TXE)); 
 8000424:	4b04      	ldr	r3, [pc, #16]	@ (8000438 <SPI1Transmit+0x14>)
 8000426:	891a      	ldrh	r2, [r3, #8]
 8000428:	0791      	lsls	r1, r2, #30
 800042a:	d5fc      	bpl.n	8000426 <SPI1Transmit+0x2>
    // Отправляем данные
    SPI1->DR = data;
 800042c:	8198      	strh	r0, [r3, #12]
    // Ждем, пока последний бит физически покинет ножку MOSI
    while((SPI1->SR & SPI_SR_BSY));
 800042e:	891a      	ldrh	r2, [r3, #8]
 8000430:	0612      	lsls	r2, r2, #24
 8000432:	d4fc      	bmi.n	800042e <SPI1Transmit+0xa>
}
 8000434:	4770      	bx	lr
 8000436:	bf00      	nop
 8000438:	40013000 	.word	0x40013000

0800043c <ssd1306RunDisplayUPD>:


void ssd1306RunDisplayUPD()
{
    DMA1_Channel3->CCR &= ~(DMA_CCR1_EN);         // Выключить DMA
 800043c:	4b0e      	ldr	r3, [pc, #56]	@ (8000478 <ssd1306RunDisplayUPD+0x3c>)
    DMA1_Channel3->CPAR = (uint32_t)(&SPI1->DR);  // Занесем в DMA адрес регистра данных SPI1
    DMA1_Channel3->CMAR = (uint32_t)&displayBuff; // Адрес данных
    DMA1_Channel3->CNDTR = sizeof(displayBuff);   // Размер данных
    DMA1->IFCR &= ~(DMA_IFCR_CGIF3);
    CS_RES;                                       // Выбор устройства на шине
 800043e:	f04f 7100 	mov.w	r1, #33554432	@ 0x2000000
    DMA1_Channel3->CCR &= ~(DMA_CCR1_EN);         // Выключить DMA
 8000442:	6b1a      	ldr	r2, [r3, #48]	@ 0x30
 8000444:	f022 0201 	bic.w	r2, r2, #1
 8000448:	631a      	str	r2, [r3, #48]	@ 0x30
    DMA1_Channel3->CPAR = (uint32_t)(&SPI1->DR);  // Занесем в DMA адрес регистра данных SPI1
 800044a:	4a0c      	ldr	r2, [pc, #48]	@ (800047c <ssd1306RunDisplayUPD+0x40>)
 800044c:	639a      	str	r2, [r3, #56]	@ 0x38
    DMA1_Channel3->CMAR = (uint32_t)&displayBuff; // Адрес данных
 800044e:	4a0c      	ldr	r2, [pc, #48]	@ (8000480 <ssd1306RunDisplayUPD+0x44>)
 8000450:	63da      	str	r2, [r3, #60]	@ 0x3c
    DMA1_Channel3->CNDTR = sizeof(displayBuff);   // Размер данных
 8000452:	f44f 6280 	mov.w	r2, #1024	@ 0x400
 8000456:	635a      	str	r2, [r3, #52]	@ 0x34
    DMA1->IFCR &= ~(DMA_IFCR_CGIF3);
 8000458:	685a      	ldr	r2, [r3, #4]
 800045a:	f422 7280 	bic.w	r2, r2, #256	@ 0x100
 800045e:	605a      	str	r2, [r3, #4]
    CS_RES;                                       // Выбор устройства на шине
 8000460:	4a08      	ldr	r2, [pc, #32]	@ (8000484 <ssd1306RunDisplayUPD+0x48>)
 8000462:	6111      	str	r1, [r2, #16]
    DMA1_Channel3->CCR |= DMA_CCR1_CIRC;          // Циклический режим DMA
 8000464:	6b1a      	ldr	r2, [r3, #48]	@ 0x30
 8000466:	f042 0220 	orr.w	r2, r2, #32
 800046a:	631a      	str	r2, [r3, #48]	@ 0x30
    DMA1_Channel3->CCR |= DMA_CCR1_EN;            // Включить DMA
 800046c:	6b1a      	ldr	r2, [r3, #48]	@ 0x30
 800046e:	f042 0201 	orr.w	r2, r2, #1
 8000472:	631a      	str	r2, [r3, #48]	@ 0x30
}
 8000474:	4770      	bx	lr
 8000476:	bf00      	nop
 8000478:	40020000 	.word	0x40020000
 800047c:	4001300c 	.word	0x4001300c
 8000480:	20000000 	.word	0x20000000
 8000484:	40010800 	.word	0x40010800

08000488 <ssd1306SendCommand>:
    DMA1_Channel3->CCR &= ~(DMA_CCR1_EN);         // Выключить DMA
    DMA1_Channel3->CCR &= ~DMA_CCR1_CIRC;         // Выключить циклический режим
}

void ssd1306SendCommand(uint8_t command) {
    COMMAND;          // DC в 0
 8000488:	f04f 6380 	mov.w	r3, #67108864	@ 0x4000000
void ssd1306SendCommand(uint8_t command) {
 800048c:	b510      	push	{r4, lr}
    COMMAND;          // DC в 0
 800048e:	4c05      	ldr	r4, [pc, #20]	@ (80004a4 <ssd1306SendCommand+0x1c>)
 8000490:	6123      	str	r3, [r4, #16]
    CS_RES;           // Выбрать чип
 8000492:	f04f 7300 	mov.w	r3, #33554432	@ 0x2000000
 8000496:	6123      	str	r3, [r4, #16]
    SPI1Transmit(command);
 8000498:	f7ff ffc4 	bl	8000424 <SPI1Transmit>
    CS_SET;           // Отпустить чип
 800049c:	f44f 7300 	mov.w	r3, #512	@ 0x200
 80004a0:	6123      	str	r3, [r4, #16]
}
 80004a2:	bd10      	pop	{r4, pc}
 80004a4:	40010800 	.word	0x40010800

080004a8 <ssd1306Init>:

void ssd1306Init()
{
 80004a8:	b538      	push	{r3, r4, r5, lr}
    {
        displayBuff[i] = 0;
    }
    
    // 2. ПРАВИЛЬНЫЙ аппаратный сброс (datasheet)
    RESET_SET;        // RES = 1
 80004aa:	f44f 7580 	mov.w	r5, #256	@ 0x100
 80004ae:	4c2a      	ldr	r4, [pc, #168]	@ (8000558 <ssd1306Init+0xb0>)
        displayBuff[i] = 0;
 80004b0:	f44f 6280 	mov.w	r2, #1024	@ 0x400
 80004b4:	2100      	movs	r1, #0
 80004b6:	4829      	ldr	r0, [pc, #164]	@ (800055c <ssd1306Init+0xb4>)
 80004b8:	f7ff fe28 	bl	800010c <memset>
    sleep(500);       // ≥3ms (500 итераций)
 80004bc:	f44f 70fa 	mov.w	r0, #500	@ 0x1f4
    RESET_SET;        // RES = 1
 80004c0:	6125      	str	r5, [r4, #16]
    sleep(500);       // ≥3ms (500 итераций)
 80004c2:	f7ff ff59 	bl	8000378 <sleep>
    
    RESET_RES;        // RES = 0 (импульс)
 80004c6:	f04f 7380 	mov.w	r3, #16777216	@ 0x1000000
    sleep(10);        // ≥3μs (10 итераций достаточно)
 80004ca:	200a      	movs	r0, #10
    RESET_RES;        // RES = 0 (импульс)
 80004cc:	6123      	str	r3, [r4, #16]
    sleep(10);        // ≥3μs (10 итераций достаточно)
 80004ce:	f7ff ff53 	bl	8000378 <sleep>
    
    RESET_SET;        // RES = 1 навсегда!
    sleep(1000);      // ≥100μs стабилизации
 80004d2:	f44f 707a 	mov.w	r0, #1000	@ 0x3e8
    RESET_SET;        // RES = 1 навсегда!
 80004d6:	6125      	str	r5, [r4, #16]
    sleep(1000);      // ≥100μs стабилизации
 80004d8:	f7ff ff4e 	bl	8000378 <sleep>
    
    CS_SET;           // CS = 1 (неактивен)
 80004dc:	f44f 7300 	mov.w	r3, #512	@ 0x200
    
    // 3. Инициализация командами (RES больше не трогаем!)
    ssd1306SendCommand(0xAE); // Display OFF
 80004e0:	20ae      	movs	r0, #174	@ 0xae
    CS_SET;           // CS = 1 (неактивен)
 80004e2:	6123      	str	r3, [r4, #16]
    ssd1306SendCommand(0xAE); // Display OFF
 80004e4:	f7ff ffd0 	bl	8000488 <ssd1306SendCommand>
    ssd1306SendCommand(0x20); // Memory Addressing: Horizontal
 80004e8:	2020      	movs	r0, #32
 80004ea:	f7ff ffcd 	bl	8000488 <ssd1306SendCommand>
    ssd1306SendCommand(0xB0); // Page 0 start
 80004ee:	20b0      	movs	r0, #176	@ 0xb0
 80004f0:	f7ff ffca 	bl	8000488 <ssd1306SendCommand>
    ssd1306SendCommand(0xC8); // Scan direction
 80004f4:	20c8      	movs	r0, #200	@ 0xc8
 80004f6:	f7ff ffc7 	bl	8000488 <ssd1306SendCommand>
    ssd1306SendCommand(0xA1); // Segment remap
 80004fa:	20a1      	movs	r0, #161	@ 0xa1
 80004fc:	f7ff ffc4 	bl	8000488 <ssd1306SendCommand>
    ssd1306SendCommand(0xA8 | 0x3F); // Multiplex ratio 64-1
 8000500:	20bf      	movs	r0, #191	@ 0xbf
 8000502:	f7ff ffc1 	bl	8000488 <ssd1306SendCommand>
    ssd1306SendCommand(0xDA); ssd1306SendCommand(0x12); // COM pins
 8000506:	20da      	movs	r0, #218	@ 0xda
 8000508:	f7ff ffbe 	bl	8000488 <ssd1306SendCommand>
 800050c:	2012      	movs	r0, #18
 800050e:	f7ff ffbb 	bl	8000488 <ssd1306SendCommand>
    ssd1306SendCommand(0x81); ssd1306SendCommand(0xCF); // Contrast
 8000512:	2081      	movs	r0, #129	@ 0x81
 8000514:	f7ff ffb8 	bl	8000488 <ssd1306SendCommand>
 8000518:	20cf      	movs	r0, #207	@ 0xcf
 800051a:	f7ff ffb5 	bl	8000488 <ssd1306SendCommand>
    ssd1306SendCommand(0xD5); ssd1306SendCommand(0x80); // Display clock
 800051e:	20d5      	movs	r0, #213	@ 0xd5
 8000520:	f7ff ffb2 	bl	8000488 <ssd1306SendCommand>
 8000524:	2080      	movs	r0, #128	@ 0x80
 8000526:	f7ff ffaf 	bl	8000488 <ssd1306SendCommand>
    ssd1306SendCommand(0xD9); ssd1306SendCommand(0xF1); // Precharge period
 800052a:	20d9      	movs	r0, #217	@ 0xd9
 800052c:	f7ff ffac 	bl	8000488 <ssd1306SendCommand>
 8000530:	20f1      	movs	r0, #241	@ 0xf1
 8000532:	f7ff ffa9 	bl	8000488 <ssd1306SendCommand>
    ssd1306SendCommand(0xDB); ssd1306SendCommand(0x40); // VCOMH deselect
 8000536:	20db      	movs	r0, #219	@ 0xdb
 8000538:	f7ff ffa6 	bl	8000488 <ssd1306SendCommand>
 800053c:	2040      	movs	r0, #64	@ 0x40
 800053e:	f7ff ffa3 	bl	8000488 <ssd1306SendCommand>
    ssd1306SendCommand(0xA4); // Entire display ON
 8000542:	20a4      	movs	r0, #164	@ 0xa4
 8000544:	f7ff ffa0 	bl	8000488 <ssd1306SendCommand>
    ssd1306SendCommand(0xA6); // Normal display (не inverse)
 8000548:	20a6      	movs	r0, #166	@ 0xa6
 800054a:	f7ff ff9d 	bl	8000488 <ssd1306SendCommand>
    ssd1306SendCommand(0xAF); // Display ON
}
 800054e:	e8bd 4038 	ldmia.w	sp!, {r3, r4, r5, lr}
    ssd1306SendCommand(0xAF); // Display ON
 8000552:	20af      	movs	r0, #175	@ 0xaf
 8000554:	f7ff bf98 	b.w	8000488 <ssd1306SendCommand>
 8000558:	40010800 	.word	0x40010800
 800055c:	20000000 	.word	0x20000000

08000560 <ssd1306DrawPixel>:


void ssd1306DrawPixel(uint16_t x, uint16_t y, COLOR color){
    if ((x < SSD1306_WIDTH) && (y < SSD1306_HEIGHT) && (x >= 0) && (y >= 0))
 8000560:	287f      	cmp	r0, #127	@ 0x7f
void ssd1306DrawPixel(uint16_t x, uint16_t y, COLOR color){
 8000562:	b510      	push	{r4, lr}
    if ((x < SSD1306_WIDTH) && (y < SSD1306_HEIGHT) && (x >= 0) && (y >= 0))
 8000564:	d80e      	bhi.n	8000584 <ssd1306DrawPixel+0x24>
 8000566:	293f      	cmp	r1, #63	@ 0x3f
 8000568:	d80c      	bhi.n	8000584 <ssd1306DrawPixel+0x24>
    {
        uint16_t coord = x + (y / 8) * SSD1306_WIDTH;
 800056a:	08cb      	lsrs	r3, r1, #3
 800056c:	eb00 10c3 	add.w	r0, r0, r3, lsl #7
    	if (color == WHITE)
 8000570:	2a01      	cmp	r2, #1
        uint16_t coord = x + (y / 8) * SSD1306_WIDTH;
 8000572:	b280      	uxth	r0, r0
    	if (color == WHITE)
 8000574:	d107      	bne.n	8000586 <ssd1306DrawPixel+0x26>
      	{
      	    displayBuff[coord] |= (1 << (y % 8));
 8000576:	4b0a      	ldr	r3, [pc, #40]	@ (80005a0 <ssd1306DrawPixel+0x40>)
 8000578:	f001 0107 	and.w	r1, r1, #7
 800057c:	408a      	lsls	r2, r1
 800057e:	5c19      	ldrb	r1, [r3, r0]
 8000580:	430a      	orrs	r2, r1
 8000582:	541a      	strb	r2, [r3, r0]
	else if (color == BLACK)
	{
	    displayBuff[coord] &= ~(1 << (y % 8));
	}
    }
}
 8000584:	bd10      	pop	{r4, pc}
	else if (color == BLACK)
 8000586:	2a00      	cmp	r2, #0
 8000588:	d1fc      	bne.n	8000584 <ssd1306DrawPixel+0x24>
	    displayBuff[coord] &= ~(1 << (y % 8));
 800058a:	2201      	movs	r2, #1
 800058c:	4c04      	ldr	r4, [pc, #16]	@ (80005a0 <ssd1306DrawPixel+0x40>)
 800058e:	f001 0107 	and.w	r1, r1, #7
 8000592:	5c23      	ldrb	r3, [r4, r0]
 8000594:	408a      	lsls	r2, r1
 8000596:	ea23 0302 	bic.w	r3, r3, r2
 800059a:	5423      	strb	r3, [r4, r0]
}
 800059c:	e7f2      	b.n	8000584 <ssd1306DrawPixel+0x24>
 800059e:	bf00      	nop
 80005a0:	20000000 	.word	0x20000000

080005a4 <updateAndSleep>:
	    displayBuff[i]=0;
    }
}

void updateAndSleep(uint32_t iterations) 
{
 80005a4:	b508      	push	{r3, lr}
    ssd1306RunDisplayUPD();   // 1. Даем команду: «Отправить то, что нарисовали, на экран»
 80005a6:	f7ff ff49 	bl	800043c <ssd1306RunDisplayUPD>
    sleep(iterations);        // 2. Даем процессору команду: «Подожди немного»
}
 80005aa:	e8bd 4008 	ldmia.w	sp!, {r3, lr}
    sleep(iterations);        // 2. Даем процессору команду: «Подожди немного»
 80005ae:	f7ff bee3 	b.w	8000378 <sleep>

080005b2 <ssd1306SpiralStep>:

void ssd1306SpiralStep(COLOR color, uint32_t delayTime) {
 80005b2:	e92d 47f0 	stmdb	sp!, {r4, r5, r6, r7, r8, r9, sl, lr}
 80005b6:	4607      	mov	r7, r0
 80005b8:	4688      	mov	r8, r1
    int top = 0;
    int bottom = SSD1306_HEIGHT - 1;
 80005ba:	253f      	movs	r5, #63	@ 0x3f
    int top = 0;
 80005bc:	2600      	movs	r6, #0
    int left = 0;
    int right = SSD1306_WIDTH - 1;

    while (left <= right && top <= bottom) {
        // Вправо
        for (int i = left; i <= right; i++) ssd1306DrawPixel(i, top, color);
 80005be:	4634      	mov	r4, r6
 80005c0:	f1c6 0a7f 	rsb	sl, r6, #127	@ 0x7f
 80005c4:	fa1f f986 	uxth.w	r9, r6
 80005c8:	e005      	b.n	80005d6 <ssd1306SpiralStep+0x24>
 80005ca:	b2a0      	uxth	r0, r4
 80005cc:	463a      	mov	r2, r7
 80005ce:	4649      	mov	r1, r9
 80005d0:	f7ff ffc6 	bl	8000560 <ssd1306DrawPixel>
 80005d4:	3401      	adds	r4, #1
 80005d6:	4554      	cmp	r4, sl
 80005d8:	ddf7      	ble.n	80005ca <ssd1306SpiralStep+0x18>
        top++;
 80005da:	1c74      	adds	r4, r6, #1
        updateAndSleep(delayTime);
 80005dc:	4640      	mov	r0, r8
 80005de:	f7ff ffe1 	bl	80005a4 <updateAndSleep>

        // Вниз
        for (int i = top; i <= bottom; i++) ssd1306DrawPixel(right, i, color);
 80005e2:	46a1      	mov	r9, r4
 80005e4:	f1c4 0a80 	rsb	sl, r4, #128	@ 0x80
 80005e8:	fa1f fa8a 	uxth.w	sl, sl
 80005ec:	45a9      	cmp	r9, r5
 80005ee:	dd1e      	ble.n	800062e <ssd1306SpiralStep+0x7c>
        right--;
        updateAndSleep(delayTime);
 80005f0:	4640      	mov	r0, r8
 80005f2:	f7ff ffd7 	bl	80005a4 <updateAndSleep>

        // Влево
        if (top <= bottom) {
 80005f6:	42ac      	cmp	r4, r5
 80005f8:	dc10      	bgt.n	800061c <ssd1306SpiralStep+0x6a>
        right--;
 80005fa:	f1c4 097f 	rsb	r9, r4, #127	@ 0x7f
            for (int i = right; i >= left; i--) ssd1306DrawPixel(i, bottom, color);
 80005fe:	fa1f fa85 	uxth.w	sl, r5
 8000602:	45b1      	cmp	r9, r6
 8000604:	da1c      	bge.n	8000640 <ssd1306SpiralStep+0x8e>
            bottom--;
            updateAndSleep(delayTime);
 8000606:	4640      	mov	r0, r8
            bottom--;
 8000608:	3d01      	subs	r5, #1
            updateAndSleep(delayTime);
 800060a:	f7ff ffcb 	bl	80005a4 <updateAndSleep>
        }

        // Вверх
        if (left <= right) {
            for (int i = bottom; i >= top; i--) ssd1306DrawPixel(left, i, color);
 800060e:	462e      	mov	r6, r5
 8000610:	f104 39ff 	add.w	r9, r4, #4294967295	@ 0xffffffff
 8000614:	fa1f f989 	uxth.w	r9, r9
 8000618:	42a6      	cmp	r6, r4
 800061a:	da1a      	bge.n	8000652 <ssd1306SpiralStep+0xa0>
            left++;
            updateAndSleep(delayTime);
 800061c:	4640      	mov	r0, r8
 800061e:	f7ff ffc1 	bl	80005a4 <updateAndSleep>
    while (left <= right && top <= bottom) {
 8000622:	2c40      	cmp	r4, #64	@ 0x40
 8000624:	d01c      	beq.n	8000660 <ssd1306SpiralStep+0xae>
 8000626:	42ac      	cmp	r4, r5
 8000628:	dc1a      	bgt.n	8000660 <ssd1306SpiralStep+0xae>
 800062a:	4626      	mov	r6, r4
 800062c:	e7c7      	b.n	80005be <ssd1306SpiralStep+0xc>
        for (int i = top; i <= bottom; i++) ssd1306DrawPixel(right, i, color);
 800062e:	fa1f f189 	uxth.w	r1, r9
 8000632:	463a      	mov	r2, r7
 8000634:	4650      	mov	r0, sl
 8000636:	f7ff ff93 	bl	8000560 <ssd1306DrawPixel>
 800063a:	f109 0901 	add.w	r9, r9, #1
 800063e:	e7d5      	b.n	80005ec <ssd1306SpiralStep+0x3a>
            for (int i = right; i >= left; i--) ssd1306DrawPixel(i, bottom, color);
 8000640:	fa1f f089 	uxth.w	r0, r9
 8000644:	463a      	mov	r2, r7
 8000646:	4651      	mov	r1, sl
 8000648:	f7ff ff8a 	bl	8000560 <ssd1306DrawPixel>
 800064c:	f109 39ff 	add.w	r9, r9, #4294967295	@ 0xffffffff
 8000650:	e7d7      	b.n	8000602 <ssd1306SpiralStep+0x50>
            for (int i = bottom; i >= top; i--) ssd1306DrawPixel(left, i, color);
 8000652:	b2b1      	uxth	r1, r6
 8000654:	463a      	mov	r2, r7
 8000656:	4648      	mov	r0, r9
 8000658:	f7ff ff82 	bl	8000560 <ssd1306DrawPixel>
 800065c:	3e01      	subs	r6, #1
 800065e:	e7db      	b.n	8000618 <ssd1306SpiralStep+0x66>
        }
    }
}
 8000660:	e8bd 87f0 	ldmia.w	sp!, {r4, r5, r6, r7, r8, r9, sl, pc}

08000664 <main>:
    sleep(5000);
    SPI1Init();     // Инициализация шины SPI1    
    sleep(5000);
    
    // ТЕСТ DC ПИНА
    COMMAND;  // PA10 = 0
 8000664:	f04f 6680 	mov.w	r6, #67108864	@ 0x4000000
    sleep(5000); 
    DATA;     // PA10 = 1  
 8000668:	f44f 6580 	mov.w	r5, #1024	@ 0x400
int main(void) {
 800066c:	b508      	push	{r3, lr}
    RccClockInit(); // Включение тактирования
 800066e:	f7ff fe33 	bl	80002d8 <RccClockInit>
    COMMAND;  // PA10 = 0
 8000672:	4c21      	ldr	r4, [pc, #132]	@ (80006f8 <main+0x94>)
    sleep(5000);
 8000674:	f241 3088 	movw	r0, #5000	@ 0x1388
 8000678:	f7ff fe7e 	bl	8000378 <sleep>
    SPI1Init();     // Инициализация шины SPI1    
 800067c:	f7ff fe86 	bl	800038c <SPI1Init>
    sleep(5000);
 8000680:	f241 3088 	movw	r0, #5000	@ 0x1388
 8000684:	f7ff fe78 	bl	8000378 <sleep>
    sleep(5000); 
 8000688:	f241 3088 	movw	r0, #5000	@ 0x1388
    COMMAND;  // PA10 = 0
 800068c:	6126      	str	r6, [r4, #16]
    sleep(5000); 
 800068e:	f7ff fe73 	bl	8000378 <sleep>
    sleep(5000);
 8000692:	f241 3088 	movw	r0, #5000	@ 0x1388
    DATA;     // PA10 = 1  
 8000696:	6125      	str	r5, [r4, #16]
    sleep(5000);
 8000698:	f7ff fe6e 	bl	8000378 <sleep>
    COMMAND;  // PA10 = 0
    sleep(5000);
 800069c:	f241 3088 	movw	r0, #5000	@ 0x1388
    COMMAND;  // PA10 = 0
 80006a0:	6126      	str	r6, [r4, #16]
    sleep(5000);
 80006a2:	f7ff fe69 	bl	8000378 <sleep>
    DATA;     // мигает PA10
    sleep(5000);
 80006a6:	f241 3088 	movw	r0, #5000	@ 0x1388
    DATA;     // мигает PA10
 80006aa:	6125      	str	r5, [r4, #16]
    sleep(5000);
 80006ac:	f7ff fe64 	bl	8000378 <sleep>
    
    ssd1306Init();  // Инициализация устройства OLED1306 на шине SPI
 80006b0:	f7ff fefa 	bl	80004a8 <ssd1306Init>
    sleep(5000);
 80006b4:	f241 3088 	movw	r0, #5000	@ 0x1388
 80006b8:	f7ff fe5e 	bl	8000378 <sleep>
    
    // Настройка прерываний DMA
    DMA1_Channel3->CCR |= DMA_CCR3_TCIE; 
 80006bc:	4a0f      	ldr	r2, [pc, #60]	@ (80006fc <main+0x98>)
 80006be:	6b13      	ldr	r3, [r2, #48]	@ 0x30
 80006c0:	f043 0302 	orr.w	r3, r3, #2
 80006c4:	6313      	str	r3, [r2, #48]	@ 0x30
 * Enable a device specific interupt in the NVIC interrupt controller.
 * The interrupt number cannot be a negative value.
 */
static __INLINE void NVIC_EnableIRQ(IRQn_Type IRQn)
{
  NVIC->ISER[((uint32_t)(IRQn) >> 5)] = (1 << ((uint32_t)(IRQn) & 0x1F)); /* enable interrupt */
 80006c6:	f44f 5200 	mov.w	r2, #8192	@ 0x2000
 80006ca:	4b0d      	ldr	r3, [pc, #52]	@ (8000700 <main+0x9c>)
 80006cc:	601a      	str	r2, [r3, #0]
static __INLINE void __enable_irq()               { __ASM volatile ("cpsie i"); }
 80006ce:	b662      	cpsie	i
    NVIC_EnableIRQ(DMA1_Channel3_IRQn);
    __enable_irq();
    sleep(5000);
 80006d0:	f241 3088 	movw	r0, #5000	@ 0x1388
 80006d4:	f7ff fe50 	bl	8000378 <sleep>
    
    while (1) {
        // 1. Спираль появляется (белая нить)
        ssd1306SpiralStep(WHITE, 1000); 
 80006d8:	f44f 717a 	mov.w	r1, #1000	@ 0x3e8
 80006dc:	2001      	movs	r0, #1
 80006de:	f7ff ff68 	bl	80005b2 <ssd1306SpiralStep>
        // Пауза, когда экран полностью заполнен
        sleep(5000); 
 80006e2:	f241 3088 	movw	r0, #5000	@ 0x1388
 80006e6:	f7ff fe47 	bl	8000378 <sleep>
        // 2. Спираль исчезает (черная нить стирает белую)
        // Важно: если идти по тому же алгоритму, она будет исчезать 
        // с хвоста или с головы в зависимости от порядка.
        ssd1306SpiralStep(BLACK, 1000);
 80006ea:	f44f 717a 	mov.w	r1, #1000	@ 0x3e8
 80006ee:	2000      	movs	r0, #0
 80006f0:	f7ff ff5f 	bl	80005b2 <ssd1306SpiralStep>
        // Пауза перед новым циклом
        sleep(5000);
 80006f4:	e7ec      	b.n	80006d0 <main+0x6c>
 80006f6:	bf00      	nop
 80006f8:	40010800 	.word	0x40010800
 80006fc:	40020000 	.word	0x40020000
 8000700:	e000e100 	.word	0xe000e100

08000704 <_init>:
 8000704:	b5f8      	push	{r3, r4, r5, r6, r7, lr}
 8000706:	bf00      	nop

08000708 <_fini>:
 8000708:	b5f8      	push	{r3, r4, r5, r6, r7, lr}
 800070a:	bf00      	nop
